; Function Attrs: nofree norecurse nosync nounwind memory(argmem: readwrite) uwtable
define internal void @avg_no_rnd_pixels16_xy2_8_c(ptr noundef captures(none) %0, ptr noundef readonly captures(none) %1, i64 noundef %2, i32 noundef %3) #1 {
  %5 = icmp sgt i32 %3, 0
  %6 = add nsw i32 %3, 1
  %7 = sext i32 %6 to i64
  %8 = mul nsw i64 %2, %7
  %9 = sub nsw i64 4, %8
  %10 = sext i32 %3 to i64
  %11 = mul nsw i64 %2, %10
  %12 = sub nsw i64 4, %11
  br i1 %5, label %.lr.ph.us.i, label %avg_no_rnd_pixels8_xy2_8_c.exit21

.lr.ph.us.i:                                      ; preds = %4, %._crit_edge.us.i
  %.068.us.i = phi ptr [ %75, %._crit_edge.us.i ], [ %0, %4 ]
  %.05067.us.i = phi ptr [ %74, %._crit_edge.us.i ], [ %1, %4 ]
  %13 = phi i1 [ false, %._crit_edge.us.i ], [ true, %4 ]
  %14 = load i32, ptr %.05067.us.i, align 1, !tbaa !8
  %15 = getelementptr inbounds nuw i8, ptr %.05067.us.i, i64 1
  %16 = load i32, ptr %15, align 1, !tbaa !8
  %17 = and i32 %14, 50529027
  %18 = and i32 %16, 50529027
  %19 = add nuw nsw i32 %17, 16843009
  %20 = add nuw nsw i32 %19, %18
  %21 = lshr i32 %14, 2
  %22 = and i32 %21, 1061109567
  %23 = lshr i32 %16, 2
  %24 = and i32 %23, 1061109567
  %narrow.us.i = add nuw nsw i32 %24, %22
  %.15159.us.i = getelementptr inbounds i8, ptr %.05067.us.i, i64 %2
  br label %25

25:                                               ; preds = %25, %.lr.ph.us.i
  %.15164.us.i = phi ptr [ %.15159.us.i, %.lr.ph.us.i ], [ %.151.us.i, %25 ]
  %.163.us.i = phi ptr [ %.068.us.i, %.lr.ph.us.i ], [ %71, %25 ]
  %.05362.us.i = phi i32 [ 0, %.lr.ph.us.i ], [ %72, %25 ]
  %.05461.us.i = phi i32 [ %narrow.us.i, %.lr.ph.us.i ], [ %narrow58.us.i, %25 ]
  %.05560.us.i = phi i32 [ %20, %.lr.ph.us.i ], [ %55, %25 ]
  %26 = load i32, ptr %.15164.us.i, align 1, !tbaa !8
  %27 = getelementptr inbounds nuw i8, ptr %.15164.us.i, i64 1
  %28 = load i32, ptr %27, align 1, !tbaa !8
  %29 = and i32 %26, 50529027
  %30 = and i32 %28, 50529027
  %31 = add nuw nsw i32 %30, %29
  %32 = lshr i32 %26, 2
  %33 = and i32 %32, 1061109567
  %34 = lshr i32 %28, 2
  %35 = and i32 %34, 1061109567
  %narrow57.us.i = add nuw nsw i32 %35, %33
  %36 = load i32, ptr %.163.us.i, align 4, !tbaa !9
  %37 = add nuw i32 %narrow57.us.i, %.05461.us.i
  %38 = add nuw nsw i32 %31, %.05560.us.i
  %39 = lshr i32 %38, 2
  %40 = and i32 %39, 252645135
  %41 = add i32 %37, %40
  %42 = or i32 %41, %36
  %43 = xor i32 %41, %36
  %44 = lshr i32 %43, 1
  %45 = and i32 %44, 2139062143
  %46 = sub i32 %42, %45
  store i32 %46, ptr %.163.us.i, align 4, !tbaa !9
  %47 = getelementptr inbounds i8, ptr %.15164.us.i, i64 %2
  %48 = getelementptr inbounds i8, ptr %.163.us.i, i64 %2
  %49 = load i32, ptr %47, align 1, !tbaa !8
  %50 = getelementptr inbounds nuw i8, ptr %47, i64 1
  %51 = load i32, ptr %50, align 1, !tbaa !8
  %52 = and i32 %49, 50529027
  %53 = and i32 %51, 50529027
  %54 = add nuw nsw i32 %52, 16843009
  %55 = add nuw nsw i32 %54, %53
  %56 = lshr i32 %49, 2
  %57 = and i32 %56, 1061109567
  %58 = lshr i32 %51, 2
  %59 = and i32 %58, 1061109567
  %narrow58.us.i = add nuw nsw i32 %59, %57
  %60 = load i32, ptr %48, align 4, !tbaa !9
  %61 = add nuw i32 %narrow58.us.i, %narrow57.us.i
  %62 = add nuw nsw i32 %55, %31
  %63 = lshr i32 %62, 2
  %64 = and i32 %63, 117901063
  %65 = add i32 %61, %64
  %66 = or i32 %65, %60
  %67 = xor i32 %65, %60
  %68 = lshr i32 %67, 1
  %69 = and i32 %68, 2139062143
  %70 = sub i32 %66, %69
  store i32 %70, ptr %48, align 4, !tbaa !9
  %71 = getelementptr inbounds i8, ptr %48, i64 %2
  %72 = add nuw nsw i32 %.05362.us.i, 2
  %.151.us.i = getelementptr inbounds i8, ptr %47, i64 %2
  %73 = icmp slt i32 %72, %3
  br i1 %73, label %25, label %._crit_edge.us.i, !llvm.loop !38

._crit_edge.us.i:                                 ; preds = %25
  %74 = getelementptr inbounds i8, ptr %.151.us.i, i64 %9
  %75 = getelementptr inbounds i8, ptr %71, i64 %12
  br i1 %13, label %.lr.ph.us.i, label %avg_no_rnd_pixels8_xy2_8_c.exit, !llvm.loop !39

avg_no_rnd_pixels8_xy2_8_c.exit:                  ; preds = %._crit_edge.us.i
  %76 = getelementptr inbounds nuw i8, ptr %0, i64 8
  %77 = getelementptr inbounds nuw i8, ptr %1, i64 8
  br label %.lr.ph.us.i7

.lr.ph.us.i7:                                     ; preds = %avg_no_rnd_pixels8_xy2_8_c.exit, %._crit_edge.us.i20
  %.068.us.i8 = phi ptr [ %140, %._crit_edge.us.i20 ], [ %76, %avg_no_rnd_pixels8_xy2_8_c.exit ]
  %.05067.us.i9 = phi ptr [ %139, %._crit_edge.us.i20 ], [ %77, %avg_no_rnd_pixels8_xy2_8_c.exit ]
  %78 = phi i1 [ false, %._crit_edge.us.i20 ], [ true, %avg_no_rnd_pixels8_xy2_8_c.exit ]
  %79 = load i32, ptr %.05067.us.i9, align 1, !tbaa !8
  %80 = getelementptr inbounds nuw i8, ptr %.05067.us.i9, i64 1
  %81 = load i32, ptr %80, align 1, !tbaa !8
  %82 = and i32 %79, 50529027
  %83 = and i32 %81, 50529027
  %84 = add nuw nsw i32 %82, 16843009
  %85 = add nuw nsw i32 %84, %83
  %86 = lshr i32 %79, 2
  %87 = and i32 %86, 1061109567
  %88 = lshr i32 %81, 2
  %89 = and i32 %88, 1061109567
  %narrow.us.i10 = add nuw nsw i32 %89, %87
  %.15159.us.i11 = getelementptr inbounds i8, ptr %.05067.us.i9, i64 %2
  br label %90

90:                                               ; preds = %90, %.lr.ph.us.i7
  %.15164.us.i12 = phi ptr [ %.15159.us.i11, %.lr.ph.us.i7 ], [ %.151.us.i19, %90 ]
  %.163.us.i13 = phi ptr [ %.068.us.i8, %.lr.ph.us.i7 ], [ %136, %90 ]
  %.05362.us.i14 = phi i32 [ 0, %.lr.ph.us.i7 ], [ %137, %90 ]
  %.05461.us.i15 = phi i32 [ %narrow.us.i10, %.lr.ph.us.i7 ], [ %narrow58.us.i18, %90 ]
  %.05560.us.i16 = phi i32 [ %85, %.lr.ph.us.i7 ], [ %120, %90 ]
  %91 = load i32, ptr %.15164.us.i12, align 1, !tbaa !8
  %92 = getelementptr inbounds nuw i8, ptr %.15164.us.i12, i64 1
  %93 = load i32, ptr %92, align 1, !tbaa !8
  %94 = and i32 %91, 50529027
  %95 = and i32 %93, 50529027
  %96 = add nuw nsw i32 %95, %94
  %97 = lshr i32 %91, 2
  %98 = and i32 %97, 1061109567
  %99 = lshr i32 %93, 2
  %100 = and i32 %99, 1061109567
  %narrow57.us.i17 = add nuw nsw i32 %100, %98
  %101 = load i32, ptr %.163.us.i13, align 4, !tbaa !9
  %102 = add nuw i32 %narrow57.us.i17, %.05461.us.i15
  %103 = add nuw nsw i32 %96, %.05560.us.i16
  %104 = lshr i32 %103, 2
  %105 = and i32 %104, 252645135
  %106 = add i32 %102, %105
  %107 = or i32 %106, %101
  %108 = xor i32 %106, %101
  %109 = lshr i32 %108, 1
  %110 = and i32 %109, 2139062143
  %111 = sub i32 %107, %110
  store i32 %111, ptr %.163.us.i13, align 4, !tbaa !9
  %112 = getelementptr inbounds i8, ptr %.15164.us.i12, i64 %2
  %113 = getelementptr inbounds i8, ptr %.163.us.i13, i64 %2
  %114 = load i32, ptr %112, align 1, !tbaa !8
  %115 = getelementptr inbounds nuw i8, ptr %112, i64 1
  %116 = load i32, ptr %115, align 1, !tbaa !8
  %117 = and i32 %114, 50529027
  %118 = and i32 %116, 50529027
  %119 = add nuw nsw i32 %117, 16843009
  %120 = add nuw nsw i32 %119, %118
  %121 = lshr i32 %114, 2
  %122 = and i32 %121, 1061109567
  %123 = lshr i32 %116, 2
  %124 = and i32 %123, 1061109567
  %narrow58.us.i18 = add nuw nsw i32 %124, %122
  %125 = load i32, ptr %113, align 4, !tbaa !9
  %126 = add nuw i32 %narrow58.us.i18, %narrow57.us.i17
  %127 = add nuw nsw i32 %120, %96
  %128 = lshr i32 %127, 2
  %129 = and i32 %128, 117901063
  %130 = add i32 %126, %129
  %131 = or i32 %130, %125
  %132 = xor i32 %130, %125
  %133 = lshr i32 %132, 1
  %134 = and i32 %133, 2139062143
  %135 = sub i32 %131, %134
  store i32 %135, ptr %113, align 4, !tbaa !9
  %136 = getelementptr inbounds i8, ptr %113, i64 %2
  %137 = add nuw nsw i32 %.05362.us.i14, 2
  %.151.us.i19 = getelementptr inbounds i8, ptr %112, i64 %2
  %138 = icmp slt i32 %137, %3
  br i1 %138, label %90, label %._crit_edge.us.i20, !llvm.loop !38

._crit_edge.us.i20:                               ; preds = %90
  %139 = getelementptr inbounds i8, ptr %.151.us.i19, i64 %9
  %140 = getelementptr inbounds i8, ptr %136, i64 %12
  br i1 %78, label %.lr.ph.us.i7, label %avg_no_rnd_pixels8_xy2_8_c.exit21, !llvm.loop !39

avg_no_rnd_pixels8_xy2_8_c.exit21:                ; preds = %._crit_edge.us.i20, %4
  ret void
}